target datalayout = "e-m:e-p270:32:32-p271:32:32-p272:64:64-i64:64-i128:128-f80:128-n8:16:32:64-S128"
target triple = "x86_64-unknown-linux-gnu"

%"class.icu_75::SimpleTimeZone" = type { %"class.icu_75::BasicTimeZone", i8, i8, i8, i32, i32, i32, i8, i8, i8, i32, i32, i32, i8, i32, i32, i32, i8, ptr, ptr, ptr, ptr }
%"class.icu_75::BasicTimeZone" = type { %"class.icu_75::TimeZone" }
%"class.icu_75::TimeZone" = type { %"class.icu_75::UObject", %"class.icu_75::UnicodeString" }
%"class.icu_75::UObject" = type { ptr }
%"class.icu_75::UnicodeString" = type { %"class.icu_75::Replaceable", %"union.icu_75::UnicodeString::StackBufferOrFields" }
%"class.icu_75::Replaceable" = type { %"class.icu_75::UObject" }
%"union.icu_75::UnicodeString::StackBufferOrFields" = type { %struct.anon.0, [32 x i8] }
%struct.anon.0 = type { i16, i32, i32, ptr }

; Function Attrs: mustprogress uwtable
define void @_ZN6icu_7514SimpleTimeZone9constructEiaaaiNS0_8TimeModeEaaaiS1_iR10UErrorCode(ptr noundef nonnull align 8 dereferenceable(160) %this, i32 noundef %rawOffsetGMT, i8 noundef signext %savingsStartMonth, i8 noundef signext %savingsStartDay, i8 noundef signext %savingsStartDayOfWeek, i32 noundef %savingsStartTime, i32 noundef %savingsStartTimeMode, i8 noundef signext %savingsEndMonth, i8 noundef signext %savingsEndDay, i8 noundef signext %savingsEndDayOfWeek, i32 noundef %savingsEndTime, i32 noundef %savingsEndTimeMode, i32 noundef %savingsDST, ptr noundef nonnull align 4 dereferenceable(4) %status) #1 align 2 {
entry:
  %this.addr = alloca ptr, align 8
  %rawOffsetGMT.addr = alloca i32, align 4
  %savingsStartMonth.addr = alloca i8, align 1
  %savingsStartDay.addr = alloca i8, align 1
  %savingsStartDayOfWeek.addr = alloca i8, align 1
  %savingsStartTime.addr = alloca i32, align 4
  %savingsStartTimeMode.addr = alloca i32, align 4
  %savingsEndMonth.addr = alloca i8, align 1
  %savingsEndDay.addr = alloca i8, align 1
  %savingsEndDayOfWeek.addr = alloca i8, align 1
  %savingsEndTime.addr = alloca i32, align 4
  %savingsEndTimeMode.addr = alloca i32, align 4
  %savingsDST.addr = alloca i32, align 4
  %status.addr = alloca ptr, align 8
  store ptr %this, ptr %this.addr, align 8
  store i32 %rawOffsetGMT, ptr %rawOffsetGMT.addr, align 4
  store i8 %savingsStartMonth, ptr %savingsStartMonth.addr, align 1
  store i8 %savingsStartDay, ptr %savingsStartDay.addr, align 1
  store i8 %savingsStartDayOfWeek, ptr %savingsStartDayOfWeek.addr, align 1
  store i32 %savingsStartTime, ptr %savingsStartTime.addr, align 4
  store i32 %savingsStartTimeMode, ptr %savingsStartTimeMode.addr, align 4
  store i8 %savingsEndMonth, ptr %savingsEndMonth.addr, align 1
  store i8 %savingsEndDay, ptr %savingsEndDay.addr, align 1
  store i8 %savingsEndDayOfWeek, ptr %savingsEndDayOfWeek.addr, align 1
  store i32 %savingsEndTime, ptr %savingsEndTime.addr, align 4
  store i32 %savingsEndTimeMode, ptr %savingsEndTimeMode.addr, align 4
  store i32 %savingsDST, ptr %savingsDST.addr, align 4
  store ptr %status, ptr %status.addr, align 8
  %this1 = load ptr, ptr %this.addr, align 8
  %0 = load i32, ptr %rawOffsetGMT.addr, align 4
  %rawOffset = getelementptr inbounds %"class.icu_75::SimpleTimeZone", ptr %this1, i32 0, i32 12
  store i32 %0, ptr %rawOffset, align 4
  %1 = load i8, ptr %savingsStartMonth.addr, align 1
  %startMonth = getelementptr inbounds %"class.icu_75::SimpleTimeZone", ptr %this1, i32 0, i32 1
  store i8 %1, ptr %startMonth, align 8
  %2 = load i8, ptr %savingsStartDay.addr, align 1
  %startDay = getelementptr inbounds %"class.icu_75::SimpleTimeZone", ptr %this1, i32 0, i32 2
  store i8 %2, ptr %startDay, align 1
  %3 = load i8, ptr %savingsStartDayOfWeek.addr, align 1
  %startDayOfWeek = getelementptr inbounds %"class.icu_75::SimpleTimeZone", ptr %this1, i32 0, i32 3
  store i8 %3, ptr %startDayOfWeek, align 2
  %4 = load i32, ptr %savingsStartTime.addr, align 4
  %startTime = getelementptr inbounds %"class.icu_75::SimpleTimeZone", ptr %this1, i32 0, i32 4
  store i32 %4, ptr %startTime, align 4
  %5 = load i32, ptr %savingsStartTimeMode.addr, align 4
  %startTimeMode = getelementptr inbounds %"class.icu_75::SimpleTimeZone", ptr %this1, i32 0, i32 5
  store i32 %5, ptr %startTimeMode, align 8
  %6 = load i8, ptr %savingsEndMonth.addr, align 1
  %endMonth = getelementptr inbounds %"class.icu_75::SimpleTimeZone", ptr %this1, i32 0, i32 7
  store i8 %6, ptr %endMonth, align 8
  %7 = load i8, ptr %savingsEndDay.addr, align 1
  %endDay = getelementptr inbounds %"class.icu_75::SimpleTimeZone", ptr %this1, i32 0, i32 8
  store i8 %7, ptr %endDay, align 1
  %8 = load i8, ptr %savingsEndDayOfWeek.addr, align 1
  %endDayOfWeek = getelementptr inbounds %"class.icu_75::SimpleTimeZone", ptr %this1, i32 0, i32 9
  store i8 %8, ptr %endDayOfWeek, align 2
  %9 = load i32, ptr %savingsEndTime.addr, align 4
  %endTime = getelementptr inbounds %"class.icu_75::SimpleTimeZone", ptr %this1, i32 0, i32 10
  store i32 %9, ptr %endTime, align 4
  %10 = load i32, ptr %savingsEndTimeMode.addr, align 4
  %endTimeMode = getelementptr inbounds %"class.icu_75::SimpleTimeZone", ptr %this1, i32 0, i32 6
  store i32 %10, ptr %endTimeMode, align 4
  %11 = load i32, ptr %savingsDST.addr, align 4
  %dstSavings = getelementptr inbounds %"class.icu_75::SimpleTimeZone", ptr %this1, i32 0, i32 16
  store i32 %11, ptr %dstSavings, align 4
  %startYear = getelementptr inbounds %"class.icu_75::SimpleTimeZone", ptr %this1, i32 0, i32 11
  store i32 0, ptr %startYear, align 8
  %startMode = getelementptr inbounds %"class.icu_75::SimpleTimeZone", ptr %this1, i32 0, i32 14
  store i32 1, ptr %startMode, align 4
  %endMode = getelementptr inbounds %"class.icu_75::SimpleTimeZone", ptr %this1, i32 0, i32 15
  store i32 1, ptr %endMode, align 8
  %12 = load ptr, ptr %status.addr, align 8
  call void @_ZN6icu_7514SimpleTimeZone11decodeRulesER10UErrorCode(ptr noundef nonnull align 8 dereferenceable(160) %this1, ptr noundef nonnull align 4 dereferenceable(4) %12)
  %13 = load i32, ptr %savingsDST.addr, align 4
  %cmp = icmp eq i32 %13, 0
  br i1 %cmp, label %if.then, label %if.end

if.then:                                          ; preds = %entry
  %14 = load ptr, ptr %status.addr, align 8
  store i32 1, ptr %14, align 4
  br label %if.end

if.end:                                           ; preds = %if.then, %entry
  ret void
}

; Function Attrs: mustprogress nounwind uwtable
define void @_ZN6icu_7514SimpleTimeZone20clearTransitionRulesEv(ptr noundef nonnull align 8 dereferenceable(160) %this) #0 align 2 {
entry:
  %this.addr = alloca ptr, align 8
  store ptr %this, ptr %this.addr, align 8
  %this1 = load ptr, ptr %this.addr, align 8
  %initialRule = getelementptr inbounds %"class.icu_75::SimpleTimeZone", ptr %this1, i32 0, i32 18
  store ptr null, ptr %initialRule, align 8
  %firstTransition = getelementptr inbounds %"class.icu_75::SimpleTimeZone", ptr %this1, i32 0, i32 19
  store ptr null, ptr %firstTransition, align 8
  %stdRule = getelementptr inbounds %"class.icu_75::SimpleTimeZone", ptr %this1, i32 0, i32 20
  store ptr null, ptr %stdRule, align 8
  %dstRule = getelementptr inbounds %"class.icu_75::SimpleTimeZone", ptr %this1, i32 0, i32 21
  store ptr null, ptr %dstRule, align 8
  %transitionRulesInitialized = getelementptr inbounds %"class.icu_75::SimpleTimeZone", ptr %this1, i32 0, i32 17
  store i8 0, ptr %transitionRulesInitialized, align 8
  ret void
}

; Function Attrs: mustprogress uwtable
define void @_ZN6icu_7514SimpleTimeZoneC2EiRKNS_13UnicodeStringEaaaiaaaiiR10UErrorCode(ptr noundef nonnull align 8 dereferenceable(160) %this, i32 noundef %rawOffsetGMT, ptr noundef nonnull align 8 dereferenceable(64) %ID, i8 noundef signext %savingsStartMonth, i8 noundef signext %savingsStartDay, i8 noundef signext %savingsStartDayOfWeek, i32 noundef %savingsStartTime, i8 noundef signext %savingsEndMonth, i8 noundef signext %savingsEndDay, i8 noundef signext %savingsEndDayOfWeek, i32 noundef %savingsEndTime, i32 noundef %savingsDST, ptr noundef nonnull align 4 dereferenceable(4) %status) unnamed_addr #1 align 2 personality ptr @__gxx_personality_v0 {
entry:
  %this.addr = alloca ptr, align 8
  %rawOffsetGMT.addr = alloca i32, align 4
  %ID.addr = alloca ptr, align 8
  %savingsStartMonth.addr = alloca i8, align 1
  %savingsStartDay.addr = alloca i8, align 1
  %savingsStartDayOfWeek.addr = alloca i8, align 1
  %savingsStartTime.addr = alloca i32, align 4
  %savingsEndMonth.addr = alloca i8, align 1
  %savingsEndDay.addr = alloca i8, align 1
  %savingsEndDayOfWeek.addr = alloca i8, align 1
  %savingsEndTime.addr = alloca i32, align 4
  %savingsDST.addr = alloca i32, align 4
  %status.addr = alloca ptr, align 8
  %exn.slot = alloca ptr, align 8
  %ehselector.slot = alloca i32, align 4
  store ptr %this, ptr %this.addr, align 8
  store i32 %rawOffsetGMT, ptr %rawOffsetGMT.addr, align 4
  store ptr %ID, ptr %ID.addr, align 8
  store i8 %savingsStartMonth, ptr %savingsStartMonth.addr, align 1
  store i8 %savingsStartDay, ptr %savingsStartDay.addr, align 1
  store i8 %savingsStartDayOfWeek, ptr %savingsStartDayOfWeek.addr, align 1
  store i32 %savingsStartTime, ptr %savingsStartTime.addr, align 4
  store i8 %savingsEndMonth, ptr %savingsEndMonth.addr, align 1
  store i8 %savingsEndDay, ptr %savingsEndDay.addr, align 1
  store i8 %savingsEndDayOfWeek, ptr %savingsEndDayOfWeek.addr, align 1
  store i32 %savingsEndTime, ptr %savingsEndTime.addr, align 4
  store i32 %savingsDST, ptr %savingsDST.addr, align 4
  store ptr %status, ptr %status.addr, align 8
  %this1 = load ptr, ptr %this.addr, align 8
  %0 = load ptr, ptr %ID.addr, align 8
  call void @_ZN6icu_7513BasicTimeZoneC2ERKNS_13UnicodeStringE(ptr noundef nonnull align 8 dereferenceable(72) %this1, ptr noundef nonnull align 8 dereferenceable(64) %0)
  store ptr getelementptr inbounds ({ [24 x ptr] }, ptr @_ZTVN6icu_7514SimpleTimeZoneE, i32 0, i32 0, i32 2), ptr %this1, align 8
  invoke void @_ZN6icu_7514SimpleTimeZone20clearTransitionRulesEv(ptr noundef nonnull align 8 dereferenceable(160) %this1)
          to label %invoke.cont unwind label %lpad

invoke.cont:                                      ; preds = %entry
  %1 = load i32, ptr %rawOffsetGMT.addr, align 4
  %2 = load i8, ptr %savingsStartMonth.addr, align 1
  %3 = load i8, ptr %savingsStartDay.addr, align 1
  %4 = load i8, ptr %savingsStartDayOfWeek.addr, align 1
  %5 = load i32, ptr %savingsStartTime.addr, align 4
  %6 = load i8, ptr %savingsEndMonth.addr, align 1
  %7 = load i8, ptr %savingsEndDay.addr, align 1
  %8 = load i8, ptr %savingsEndDayOfWeek.addr, align 1
  %9 = load i32, ptr %savingsEndTime.addr, align 4
  %10 = load i32, ptr %savingsDST.addr, align 4
  %11 = load ptr, ptr %status.addr, align 8
  invoke void @_ZN6icu_7514SimpleTimeZone9constructEiaaaiNS0_8TimeModeEaaaiS1_iR10UErrorCode(ptr noundef nonnull align 8 dereferenceable(160) %this1, i32 noundef %1, i8 noundef signext %2, i8 noundef signext %3, i8 noundef signext %4, i32 noundef %5, i32 noundef 0, i8 noundef signext %6, i8 noundef signext %7, i8 noundef signext %8, i32 noundef %9, i32 noundef 0, i32 noundef %10, ptr noundef nonnull align 4 dereferenceable(4) %11)
          to label %invoke.cont2 unwind label %lpad

invoke.cont2:                                     ; preds = %invoke.cont
  ret void

lpad:                                             ; preds = %invoke.cont, %entry
  %12 = landingpad { ptr, i32 }
          cleanup
  %13 = extractvalue { ptr, i32 } %12, 0
  store ptr %13, ptr %exn.slot, align 8
  %14 = extractvalue { ptr, i32 } %12, 1
  store i32 %14, ptr %ehselector.slot, align 4
  call void @_ZN6icu_7513BasicTimeZoneD2Ev(ptr noundef nonnull align 8 dereferenceable(72) %this1) #5
  br label %eh.resume

eh.resume:                                        ; preds = %lpad
  %exn = load ptr, ptr %exn.slot, align 8
  %sel = load i32, ptr %ehselector.slot, align 4
  %lpad.val = insertvalue { ptr, i32 } poison, ptr %exn, 0
  %lpad.val3 = insertvalue { ptr, i32 } %lpad.val, i32 %sel, 1
  resume { ptr, i32 } %lpad.val3
}